target datalayout = "e-m:e-p270:32:32-p271:32:32-p272:64:64-i64:64-i128:128-f80:128-n8:16:32:64-S128"
target triple = "x86_64-pc-linux-gnu"

%struct._GdkRGBA = type { double, double, double, double }
%struct.darktable_t = type { %struct.dt_codepath_t, i32, i32, ptr, ptr, ptr, ptr, ptr, ptr, ptr, ptr, ptr, ptr, ptr, ptr, ptr, ptr, ptr, ptr, ptr, ptr, ptr, ptr, ptr, ptr, ptr, ptr, ptr, ptr, ptr, [64 x %struct.dt_pthread_mutex_t], %struct.dt_pthread_mutex_t, %struct.dt_pthread_mutex_t, %struct.dt_pthread_mutex_t, %struct.dt_pthread_mutex_t, %struct.dt_pthread_mutex_t, ptr, ptr, ptr, ptr, ptr, ptr, ptr, ptr, ptr, ptr, ptr, ptr, ptr, %struct.dt_lua_state_t, ptr, double, ptr, i32, [47 x i32], i32, i32, ptr, ptr, %struct.dt_sys_resources_t, %struct.dt_backthumb_t, %struct.dt_gimp_t }
%struct.dt_codepath_t = type { i8, [3 x i8] }
%struct.dt_pthread_mutex_t = type { %union.pthread_mutex_t }
%union.pthread_mutex_t = type { %struct.__pthread_mutex_s }
%struct.__pthread_mutex_s = type { i32, i32, i32, i32, i32, i16, i16, %struct.__pthread_internal_list }
%struct.__pthread_internal_list = type { ptr, ptr }
%struct.dt_lua_state_t = type { i32 }
%struct.dt_sys_resources_t = type { i64, i64, ptr, ptr, i32 }
%struct.dt_backthumb_t = type { double, double, i32, i32, i32, i32 }
%struct.dt_gimp_t = type { i32, ptr, ptr, i32, i32 }
%struct.dt_iop_module_t = type { i32, ptr, ptr, ptr, ptr, ptr, ptr, ptr, ptr, ptr, ptr, ptr, ptr, ptr, ptr, ptr, ptr, ptr, ptr, ptr, ptr, ptr, ptr, ptr, ptr, ptr, ptr, ptr, ptr, ptr, ptr, ptr, ptr, ptr, ptr, ptr, ptr, ptr, ptr, ptr, ptr, ptr, ptr, ptr, ptr, ptr, ptr, ptr, ptr, ptr, ptr, ptr, ptr, ptr, ptr, ptr, ptr, [20 x i8], i32, i32, i32, i32, i32, i32, i32, [8 x i8], [4 x float], [4 x float], [4 x float], [4 x float], [4 x float], [4 x float], ptr, %struct.dt_dev_histogram_stats_t, [4 x i32], i32, i32, ptr, i32, i32, ptr, ptr, i32, ptr, %struct.dt_pthread_mutex_t, ptr, ptr, ptr, ptr, %struct.anon, ptr, ptr, ptr, ptr, ptr, ptr, ptr, i32, ptr, ptr, ptr, ptr, ptr, ptr, ptr, i32, ptr, i32, [128 x i8], i32, ptr, ptr, i32, [12 x i8] }
%struct.dt_dev_histogram_stats_t = type { i32, i64, i32, i32 }
%struct.anon = type { %struct.anon.0, %struct.anon.1 }
%struct.anon.0 = type { ptr, ptr }
%struct.anon.1 = type { ptr, i32 }
%struct.dt_iop_gui_blend_data_t = type { i32, i32, i32, i32, i32, i32, i32, ptr, ptr, ptr, ptr, ptr, ptr, ptr, ptr, ptr, ptr, ptr, ptr, ptr, [2 x %struct.dt_iop_gui_blendif_filter_t], ptr, ptr, ptr, ptr, ptr, ptr, ptr, ptr, ptr, ptr, ptr, ptr, i32, i32, ptr, i32, [8 x [2 x i32]], i32, i32, ptr, i32, ptr, ptr, ptr, [5 x ptr], [5 x i32], ptr, ptr, ptr, i32, ptr, ptr, i32, %struct.dt_pthread_mutex_t }
%struct.dt_iop_gui_blendif_filter_t = type { ptr, ptr, [4 x ptr], ptr, ptr, ptr }
%struct.dt_gui_gtk_t = type { ptr, %struct.dt_gui_widgets_t, %struct.dt_gui_scrollbars_t, i32, ptr, i32, [39 x %struct._GdkRGBA], i32, i32, i32, i32, i32, double, double, double, double, ptr, double, double, double, double, i32, i32, [4096 x i8], i32, i32, i32, %struct.dt_pthread_mutex_t }
%struct.dt_gui_widgets_t = type { ptr, ptr, ptr, ptr, i32, i32, i32 }
%struct.dt_gui_scrollbars_t = type { ptr, ptr, i32 }
%struct.dt_develop_blend_params_t = type { i32, i32, i32, float, float, i32, i32, i32, float, i32, float, float, float, float, i32, [2 x i32], [64 x float], [16 x float], [20 x i8], i32, i32, i32 }

@darktable = external global %struct.darktable_t, align 8

; Function Attrs: nounwind uwtable
define internal i32 @_blendop_masks_modes_toggle(ptr noundef %0, ptr noundef %1, i32 noundef %2) #0 {
  %4 = alloca i32, align 4
  %5 = alloca ptr, align 8
  %6 = alloca ptr, align 8
  %7 = alloca i32, align 4
  %8 = alloca ptr, align 8
  %9 = alloca i32, align 4
  %10 = alloca i32, align 4
  %11 = alloca i32, align 4
  store ptr %0, ptr %5, align 8, !tbaa !187
  store ptr %1, ptr %6, align 8, !tbaa !6
  store i32 %2, ptr %7, align 4, !tbaa !80
  %12 = load ptr, ptr getelementptr inbounds nuw (%struct.darktable_t, ptr @darktable, i32 0, i32 14), align 8, !tbaa !39
  %13 = getelementptr inbounds nuw %struct.dt_gui_gtk_t, ptr %12, i32 0, i32 5
  %14 = load i32, ptr %13, align 8, !tbaa !72
  %15 = icmp ne i32 %14, 0
  br i1 %15, label %16, label %17

16:                                               ; preds = %3
  store i32 0, ptr %4, align 4
  br label %154

17:                                               ; preds = %3
  call void @llvm.lifetime.start.p0(i64 8, ptr %8) #11
  %18 = load ptr, ptr %6, align 8, !tbaa !6
  %19 = getelementptr inbounds nuw %struct.dt_iop_module_t, ptr %18, i32 0, i32 88
  %20 = load ptr, ptr %19, align 8, !tbaa !15
  store ptr %20, ptr %8, align 8, !tbaa !31
  %21 = load ptr, ptr %6, align 8, !tbaa !6
  call void @dt_iop_request_focus(ptr noundef %21)
  %22 = load ptr, ptr %5, align 8, !tbaa !187
  %23 = icmp ne ptr %22, null
  br i1 %23, label %55, label %24

24:                                               ; preds = %17
  %25 = load ptr, ptr %6, align 8, !tbaa !6
  %26 = getelementptr inbounds nuw %struct.dt_iop_module_t, ptr %25, i32 0, i32 86
  %27 = load ptr, ptr %26, align 8, !tbaa !77
  %28 = getelementptr inbounds nuw %struct.dt_develop_blend_params_t, ptr %27, i32 0, i32 0
  %29 = load i32, ptr %28, align 4, !tbaa !246
  %30 = load i32, ptr %7, align 4, !tbaa !80
  %31 = or i32 %30, 8
  %32 = and i32 %29, %31
  %33 = icmp ne i32 %32, 0
  br i1 %33, label %34, label %35

34:                                               ; preds = %24
  store i32 0, ptr %4, align 4
  store i32 1, ptr %9, align 4
  br label %153

35:                                               ; preds = %24
  %36 = load ptr, ptr %6, align 8, !tbaa !6
  %37 = getelementptr inbounds nuw %struct.dt_iop_module_t, ptr %36, i32 0, i32 86
  %38 = load ptr, ptr %37, align 8, !tbaa !77
  %39 = getelementptr inbounds nuw %struct.dt_develop_blend_params_t, ptr %38, i32 0, i32 0
  %40 = load i32, ptr %39, align 4, !tbaa !246
  %41 = or i32 %40, 1
  %42 = load i32, ptr %7, align 4, !tbaa !80
  %43 = or i32 %42, %41
  store i32 %43, ptr %7, align 4, !tbaa !80
  %44 = load ptr, ptr %8, align 8, !tbaa !31
  %45 = getelementptr inbounds nuw %struct.dt_iop_gui_blend_data_t, ptr %44, i32 0, i32 9
  %46 = load ptr, ptr %45, align 8, !tbaa !242
  %47 = load ptr, ptr %8, align 8, !tbaa !31
  %48 = getelementptr inbounds nuw %struct.dt_iop_gui_blend_data_t, ptr %47, i32 0, i32 8
  %49 = load ptr, ptr %48, align 8, !tbaa !241
  %50 = load i32, ptr %7, align 4, !tbaa !80
  %51 = zext i32 %50 to i64
  %52 = inttoptr i64 %51 to ptr
  %53 = call i32 @g_list_index(ptr noundef %49, ptr noundef %52)
  %54 = call ptr @g_list_nth_data(ptr noundef %46, i32 noundef %53)
  store ptr %54, ptr %5, align 8, !tbaa !187
  br label %55

55:                                               ; preds = %35, %17
  call void @llvm.lifetime.start.p0(i64 4, ptr %10) #11
  %56 = load ptr, ptr %5, align 8, !tbaa !187
  %57 = call i32 @gtk_toggle_button_get_active(ptr noundef %56)
  %58 = icmp ne i32 %57, 0
  %59 = xor i1 %58, true
  %60 = zext i1 %59 to i32
  store i32 %60, ptr %10, align 4, !tbaa !80
  %61 = load ptr, ptr %5, align 8, !tbaa !187
  %62 = load i32, ptr %10, align 4, !tbaa !80
  call void @gtk_toggle_button_set_active(ptr noundef %61, i32 noundef %62)
  %63 = load ptr, ptr %8, align 8, !tbaa !31
  %64 = getelementptr inbounds nuw %struct.dt_iop_gui_blend_data_t, ptr %63, i32 0, i32 17
  %65 = load ptr, ptr %64, align 8, !tbaa !247
  %66 = load ptr, ptr %8, align 8, !tbaa !31
  %67 = getelementptr inbounds nuw %struct.dt_iop_gui_blend_data_t, ptr %66, i32 0, i32 9
  %68 = load ptr, ptr %67, align 8, !tbaa !242
  %69 = load ptr, ptr %8, align 8, !tbaa !31
  %70 = getelementptr inbounds nuw %struct.dt_iop_gui_blend_data_t, ptr %69, i32 0, i32 8
  %71 = load ptr, ptr %70, align 8, !tbaa !241
  %72 = call i32 @g_list_index(ptr noundef %71, ptr noundef null)
  %73 = call ptr @g_list_nth_data(ptr noundef %68, i32 noundef %72)
  %74 = icmp ne ptr %65, %73
  br i1 %74, label %75, label %81

75:                                               ; preds = %55
  %76 = load ptr, ptr %8, align 8, !tbaa !31
  %77 = getelementptr inbounds nuw %struct.dt_iop_gui_blend_data_t, ptr %76, i32 0, i32 17
  %78 = load ptr, ptr %77, align 8, !tbaa !247
  %79 = call i64 @gtk_toggle_button_get_type() #12
  %80 = call ptr @g_type_check_instance_cast(ptr noundef %78, i64 noundef %79)
  call void @gtk_toggle_button_set_active(ptr noundef %80, i32 noundef 0)
  br label %81

81:                                               ; preds = %75, %55
  %82 = load i32, ptr %10, align 4, !tbaa !80
  %83 = icmp ne i32 %82, 0
  br i1 %83, label %84, label %92

84:                                               ; preds = %81
  %85 = load i32, ptr %7, align 4, !tbaa !80
  %86 = load ptr, ptr %8, align 8, !tbaa !31
  call void @_blendop_masks_mode_callback(i32 noundef %85, ptr noundef %86)
  %87 = load ptr, ptr %5, align 8, !tbaa !187
  %88 = call i64 @gtk_widget_get_type() #12
  %89 = call ptr @g_type_check_instance_cast(ptr noundef %87, i64 noundef %88)
  %90 = load ptr, ptr %8, align 8, !tbaa !31
  %91 = getelementptr inbounds nuw %struct.dt_iop_gui_blend_data_t, ptr %90, i32 0, i32 17
  store ptr %89, ptr %91, align 8, !tbaa !247
  br label %106

92:                                               ; preds = %81
  %93 = load ptr, ptr %8, align 8, !tbaa !31
  call void @_blendop_masks_mode_callback(i32 noundef 0, ptr noundef %93)
  %94 = load ptr, ptr %8, align 8, !tbaa !31
  %95 = getelementptr inbounds nuw %struct.dt_iop_gui_blend_data_t, ptr %94, i32 0, i32 9
  %96 = load ptr, ptr %95, align 8, !tbaa !242
  %97 = load ptr, ptr %8, align 8, !tbaa !31
  %98 = getelementptr inbounds nuw %struct.dt_iop_gui_blend_data_t, ptr %97, i32 0, i32 8
  %99 = load ptr, ptr %98, align 8, !tbaa !241
  %100 = call i32 @g_list_index(ptr noundef %99, ptr noundef null)
  %101 = call ptr @g_list_nth_data(ptr noundef %96, i32 noundef %100)
  %102 = call i64 @gtk_widget_get_type() #12
  %103 = call ptr @g_type_check_instance_cast(ptr noundef %101, i64 noundef %102)
  %104 = load ptr, ptr %8, align 8, !tbaa !31
  %105 = getelementptr inbounds nuw %struct.dt_iop_gui_blend_data_t, ptr %104, i32 0, i32 17
  store ptr %103, ptr %105, align 8, !tbaa !247
  br label %106

106:                                              ; preds = %92, %84
  call void @llvm.lifetime.start.p0(i64 4, ptr %11) #11
  %107 = load i32, ptr %7, align 4, !tbaa !80
  %108 = and i32 %107, -2
  store i32 %108, ptr %11, align 4, !tbaa !80
  %109 = load i32, ptr %11, align 4, !tbaa !80
  %110 = icmp ne i32 %109, 0
  br i1 %110, label %111, label %114

111:                                              ; preds = %106
  %112 = load ptr, ptr %6, align 8, !tbaa !6
  %113 = load i32, ptr %10, align 4, !tbaa !80
  call void @dt_iop_add_remove_mask_indicator(ptr noundef %112, i32 noundef %113)
  br label %116

114:                                              ; preds = %106
  %115 = load ptr, ptr %6, align 8, !tbaa !6
  call void @dt_iop_add_remove_mask_indicator(ptr noundef %115, i32 noundef 0)
  br label %116

116:                                              ; preds = %114, %111
  %117 = load ptr, ptr %8, align 8, !tbaa !31
  %118 = getelementptr inbounds nuw %struct.dt_iop_gui_blend_data_t, ptr %117, i32 0, i32 21
  %119 = load ptr, ptr %118, align 8, !tbaa !248
  %120 = load i32, ptr %11, align 4, !tbaa !80
  call void @gtk_widget_set_visible(ptr noundef %119, i32 noundef %120)
  %121 = load ptr, ptr %8, align 8, !tbaa !31
  %122 = getelementptr inbounds nuw %struct.dt_iop_gui_blend_data_t, ptr %121, i32 0, i32 22
  %123 = load ptr, ptr %122, align 8, !tbaa !249
  %124 = load i32, ptr %11, align 4, !tbaa !80
  call void @gtk_widget_set_visible(ptr noundef %123, i32 noundef %124)
  %125 = load ptr, ptr getelementptr inbounds nuw (%struct.darktable_t, ptr @darktable, i32 0, i32 14), align 8, !tbaa !39
  %126 = getelementptr inbounds nuw %struct.dt_gui_gtk_t, ptr %125, i32 0, i32 5
  %127 = load i32, ptr %126, align 8, !tbaa !72
  %128 = add nsw i32 %127, 1
  store i32 %128, ptr %126, align 8, !tbaa !72
  %129 = load i32, ptr %10, align 4, !tbaa !80
  %130 = icmp ne i32 %129, 0
  br i1 %130, label %131, label %148

131:                                              ; preds = %116
  %132 = load ptr, ptr %6, align 8, !tbaa !6
  %133 = getelementptr inbounds nuw %struct.dt_iop_module_t, ptr %132, i32 0, i32 95
  %134 = load ptr, ptr %133, align 8, !tbaa !277
  %135 = icmp ne ptr %134, null
  br i1 %135, label %136, label %148

136:                                              ; preds = %131
  %137 = load ptr, ptr %6, align 8, !tbaa !6
  %138 = getelementptr inbounds nuw %struct.dt_iop_module_t, ptr %137, i32 0, i32 95
  %139 = load ptr, ptr %138, align 8, !tbaa !277
  %140 = call i64 @gtk_toggle_button_get_type() #12
  %141 = call ptr @g_type_check_instance_cast(ptr noundef %139, i64 noundef %140)
  %142 = load ptr, ptr %8, align 8, !tbaa !31
  %143 = getelementptr inbounds nuw %struct.dt_iop_gui_blend_data_t, ptr %142, i32 0, i32 21
  %144 = load ptr, ptr %143, align 8, !tbaa !248
  %145 = call i64 @gtk_toggle_button_get_type() #12
  %146 = call ptr @g_type_check_instance_cast(ptr noundef %144, i64 noundef %145)
  %147 = call i32 @gtk_toggle_button_get_active(ptr noundef %146)
  call void @gtk_toggle_button_set_active(ptr noundef %141, i32 noundef %147)
  br label %148

148:                                              ; preds = %136, %131, %116
  %149 = load ptr, ptr getelementptr inbounds nuw (%struct.darktable_t, ptr @darktable, i32 0, i32 14), align 8, !tbaa !39
  %150 = getelementptr inbounds nuw %struct.dt_gui_gtk_t, ptr %149, i32 0, i32 5
  %151 = load i32, ptr %150, align 8, !tbaa !72
  %152 = add nsw i32 %151, -1
  store i32 %152, ptr %150, align 8, !tbaa !72
  store i32 1, ptr %4, align 4
  store i32 1, ptr %9, align 4
  call void @llvm.lifetime.end.p0(i64 4, ptr %11) #11
  call void @llvm.lifetime.end.p0(i64 4, ptr %10) #11
  br label %153

153:                                              ; preds = %148, %34
  call void @llvm.lifetime.end.p0(i64 8, ptr %8) #11
  br label %154

154:                                              ; preds = %153, %16
  %155 = load i32, ptr %4, align 4
  ret i32 %155
}