; Function Attrs: nounwind uwtable
define internal fastcc range(i32 0, 2) i32 @_blendop_masks_modes_toggle(ptr noundef %0, ptr noundef %1, i32 noundef range(i32 1, 10) %2) unnamed_addr #0 {
  %4 = load ptr, ptr getelementptr inbounds nuw (i8, ptr @darktable, i64 104), align 8, !tbaa !33
  %5 = getelementptr inbounds nuw i8, ptr %4, i64 96
  %6 = load i32, ptr %5, align 8, !tbaa !66
  %.not = icmp eq i32 %6, 0
  br i1 %.not, label %7, label %75

7:                                                ; preds = %3
  %8 = getelementptr inbounds nuw i8, ptr %1, i64 776
  %9 = load ptr, ptr %8, align 8, !tbaa !6
  tail call void @dt_iop_request_focus(ptr noundef %1) #18
  %.not43 = icmp eq ptr %0, null
  br i1 %.not43, label %10, label %27

10:                                               ; preds = %7
  %11 = getelementptr inbounds nuw i8, ptr %1, i64 760
  %12 = load ptr, ptr %11, align 8, !tbaa !71
  %13 = load i32, ptr %12, align 4, !tbaa !214
  %14 = or i32 %2, 8
  %15 = and i32 %13, %14
  %.not44 = icmp eq i32 %15, 0
  br i1 %.not44, label %16, label %75

16:                                               ; preds = %10
  %17 = or i32 %2, %13
  %18 = or i32 %17, 1
  %19 = getelementptr inbounds nuw i8, ptr %9, i64 48
  %20 = load ptr, ptr %19, align 8, !tbaa !210
  %21 = getelementptr inbounds nuw i8, ptr %9, i64 40
  %22 = load ptr, ptr %21, align 8, !tbaa !209
  %23 = zext i32 %18 to i64
  %24 = inttoptr i64 %23 to ptr
  %25 = tail call i32 @g_list_index(ptr noundef %22, ptr noundef nonnull %24) #18
  %26 = tail call ptr @g_list_nth_data(ptr noundef %20, i32 noundef %25) #18
  br label %27

27:                                               ; preds = %16, %7
  %.040 = phi i32 [ %2, %7 ], [ %18, %16 ]
  %.039 = phi ptr [ %0, %7 ], [ %26, %16 ]
  %28 = tail call i32 @gtk_toggle_button_get_active(ptr noundef %.039) #18
  %.not45 = icmp eq i32 %28, 0
  %29 = zext i1 %.not45 to i32
  tail call void @gtk_toggle_button_set_active(ptr noundef %.039, i32 noundef %29) #18
  %30 = getelementptr inbounds nuw i8, ptr %9, i64 112
  %31 = load ptr, ptr %30, align 8, !tbaa !215
  %32 = getelementptr inbounds nuw i8, ptr %9, i64 48
  %33 = load ptr, ptr %32, align 8, !tbaa !210
  %34 = getelementptr inbounds nuw i8, ptr %9, i64 40
  %35 = load ptr, ptr %34, align 8, !tbaa !209
  %36 = tail call i32 @g_list_index(ptr noundef %35, ptr noundef null) #18
  %37 = tail call ptr @g_list_nth_data(ptr noundef %33, i32 noundef %36) #18
  %.not46 = icmp eq ptr %31, %37
  br i1 %.not46, label %42, label %38

38:                                               ; preds = %27
  %39 = load ptr, ptr %30, align 8, !tbaa !215
  %40 = tail call i64 @gtk_toggle_button_get_type() #19
  %41 = tail call ptr @g_type_check_instance_cast(ptr noundef %39, i64 noundef %40) #18
  tail call void @gtk_toggle_button_set_active(ptr noundef %41, i32 noundef 0) #18
  br label %42

42:                                               ; preds = %38, %27
  br i1 %.not45, label %43, label %44

43:                                               ; preds = %42
  tail call fastcc void @_blendop_masks_mode_callback(i32 noundef %.040, ptr noundef nonnull %9)
  br label %49

44:                                               ; preds = %42
  tail call fastcc void @_blendop_masks_mode_callback(i32 noundef 0, ptr noundef nonnull %9)
  %45 = load ptr, ptr %32, align 8, !tbaa !210
  %46 = load ptr, ptr %34, align 8, !tbaa !209
  %47 = tail call i32 @g_list_index(ptr noundef %46, ptr noundef null) #18
  %48 = tail call ptr @g_list_nth_data(ptr noundef %45, i32 noundef %47) #18
  br label %49

49:                                               ; preds = %44, %43
  %.sink = phi ptr [ %48, %44 ], [ %.039, %43 ]
  %50 = tail call i64 @gtk_widget_get_type() #19
  %51 = tail call ptr @g_type_check_instance_cast(ptr noundef %.sink, i64 noundef %50) #18
  store ptr %51, ptr %30, align 8, !tbaa !215
  %52 = and i32 %.040, -2
  %.not47 = icmp eq i32 %52, 0
  %. = select i1 %.not47, i32 0, i32 %29
  tail call void @dt_iop_add_remove_mask_indicator(ptr noundef nonnull %1, i32 noundef %.) #18
  %53 = getelementptr inbounds nuw i8, ptr %9, i64 280
  %54 = load ptr, ptr %53, align 8, !tbaa !216
  tail call void @gtk_widget_set_visible(ptr noundef %54, i32 noundef %52) #18
  %55 = getelementptr inbounds nuw i8, ptr %9, i64 288
  %56 = load ptr, ptr %55, align 8, !tbaa !217
  tail call void @gtk_widget_set_visible(ptr noundef %56, i32 noundef %52) #18
  %57 = load ptr, ptr getelementptr inbounds nuw (i8, ptr @darktable, i64 104), align 8, !tbaa !33
  %58 = getelementptr inbounds nuw i8, ptr %57, i64 96
  %59 = load i32, ptr %58, align 8, !tbaa !66
  %60 = add nsw i32 %59, 1
  store i32 %60, ptr %58, align 8, !tbaa !66
  br i1 %.not45, label %61, label %71

61:                                               ; preds = %49
  %62 = getelementptr inbounds nuw i8, ptr %1, i64 856
  %63 = load ptr, ptr %62, align 8, !tbaa !246
  %.not48 = icmp eq ptr %63, null
  br i1 %.not48, label %71, label %64

64:                                               ; preds = %61
  %65 = tail call i64 @gtk_toggle_button_get_type() #19
  %66 = tail call ptr @g_type_check_instance_cast(ptr noundef nonnull %63, i64 noundef %65) #18
  %67 = load ptr, ptr %53, align 8, !tbaa !216
  %68 = tail call ptr @g_type_check_instance_cast(ptr noundef %67, i64 noundef %65) #18
  %69 = tail call i32 @gtk_toggle_button_get_active(ptr noundef %68) #18
  tail call void @gtk_toggle_button_set_active(ptr noundef %66, i32 noundef %69) #18
  %.pre = load ptr, ptr getelementptr inbounds nuw (i8, ptr @darktable, i64 104), align 8, !tbaa !33
  %.phi.trans.insert = getelementptr inbounds nuw i8, ptr %.pre, i64 96
  %.pre49 = load i32, ptr %.phi.trans.insert, align 8, !tbaa !66
  %70 = add nsw i32 %.pre49, -1
  br label %71

71:                                               ; preds = %64, %61, %49
  %72 = phi i32 [ %70, %64 ], [ %59, %61 ], [ %59, %49 ]
  %73 = phi ptr [ %.pre, %64 ], [ %57, %61 ], [ %57, %49 ]
  %74 = getelementptr inbounds nuw i8, ptr %73, i64 96
  store i32 %72, ptr %74, align 8, !tbaa !66
  br label %75

75:                                               ; preds = %71, %10, %3
  %.0 = phi i32 [ 0, %3 ], [ 1, %71 ], [ 0, %10 ]
  ret i32 %.0
}